target datalayout = "e-m:e-p270:32:32-p271:32:32-p272:64:64-i64:64-i128:128-f80:128-n8:16:32:64-S128"
target triple = "x86_64-pc-linux-gnu"

%struct.strvec = type { ptr, i64, i64 }
%struct.strbuf = type { i64, i64, ptr }
%struct.stash_info = type { %struct.object_id, %struct.object_id, %struct.object_id, %struct.object_id, %struct.object_id, %struct.object_id, %struct.object_id, %struct.object_id, %struct.strbuf, i32, i32 }
%struct.object_id = type { [32 x i8], i32 }
%struct.repository = type { ptr, ptr, ptr, ptr, ptr, %struct.strmap, %struct.strmap, %struct.repo_path_cache, ptr, ptr, ptr, ptr, %struct.repo_settings, ptr, ptr, ptr, ptr, ptr, ptr, i32, i32, i32, ptr, ptr, i32, i32, i8 }
%struct.strmap = type { %struct.hashmap, ptr, i8 }
%struct.hashmap = type { ptr, ptr, ptr, i32, i32, i32, i32, i8 }
%struct.repo_path_cache = type { ptr, ptr, ptr, ptr, ptr, ptr, ptr }
%struct.repo_settings = type { i32, i32, i32, i32, i32, i32, i32, i32, i32, i32, i32, i32, ptr, i32, i32, i32, i32, i32, i32, i32, i64, i64, i64 }
%struct.child_process = type { %struct.strvec, %struct.strvec, i32, i32, i64, ptr, ptr, i32, i32, i32, ptr, i16, ptr }
%struct.index_state = type { ptr, i32, i32, i32, i32, ptr, ptr, ptr, %struct.cache_time, i8, i32, %struct.hashmap, %struct.hashmap, %struct.object_id, ptr, ptr, ptr, ptr, ptr, ptr, ptr }
%struct.cache_time = type { i32, i32 }

@the_repository = external global ptr, align 8
@stderr = external global ptr, align 8
@.str.25 = private unnamed_addr constant [1 x i8] zeroinitializer, align 1
@git_gettext_enabled = external global i32, align 4
@.str.46 = private unnamed_addr constant [10 x i8] c"diff-tree\00", align 1
@.str.47 = private unnamed_addr constant [9 x i8] c"--binary\00", align 1
@.str.77 = private unnamed_addr constant [3 x i8] c"--\00", align 1
@.str.94 = private unnamed_addr constant [5 x i8] c"HEAD\00", align 1
@.str.116 = private unnamed_addr constant [3 x i8] c"-p\00", align 1
@.str.117 = private unnamed_addr constant [4 x i8] c"-U1\00", align 1
@.str.119 = private unnamed_addr constant [18 x i8] c"No staged changes\00", align 1

; Function Attrs: inlinehint nounwind uwtable
define internal ptr @_(ptr noundef %0) #5 {
  %2 = alloca ptr, align 8
  %3 = alloca ptr, align 8
  store ptr %0, ptr %3, align 8, !tbaa !11
  %4 = load ptr, ptr %3, align 8, !tbaa !11
  %5 = load i8, ptr %4, align 1, !tbaa !58
  %6 = icmp ne i8 %5, 0
  br i1 %6, label %8, label %7

7:                                                ; preds = %1
  store ptr @.str.25, ptr %2, align 8
  br label %16

8:                                                ; preds = %1
  %9 = load i32, ptr @git_gettext_enabled, align 4, !tbaa !4
  %10 = icmp ne i32 %9, 0
  br i1 %10, label %13, label %11

11:                                               ; preds = %8
  %12 = load ptr, ptr %3, align 8, !tbaa !11
  store ptr %12, ptr %2, align 8
  br label %16

13:                                               ; preds = %8
  %14 = load ptr, ptr %3, align 8, !tbaa !11
  %15 = call ptr @dcgettext(ptr noundef null, ptr noundef %14, i32 noundef 5) #9
  store ptr %15, ptr %2, align 8
  br label %16

16:                                               ; preds = %13, %11, %7
  %17 = load ptr, ptr %2, align 8
  ret ptr %17
}

; Function Attrs: nounwind uwtable
define internal i32 @stash_staged(ptr noundef %0, ptr noundef %1, i32 noundef %2) #0 {
  %4 = alloca ptr, align 8
  %5 = alloca ptr, align 8
  %6 = alloca i32, align 4
  %7 = alloca i32, align 4
  %8 = alloca %struct.child_process, align 8
  %9 = alloca %struct.index_state, align 8
  store ptr %0, ptr %4, align 8, !tbaa !109
  store ptr %1, ptr %5, align 8, !tbaa !127
  store i32 %2, ptr %6, align 4, !tbaa !4
  call void @llvm.lifetime.start.p0(i64 4, ptr %7) #9
  store i32 0, ptr %7, align 4, !tbaa !4
  call void @llvm.lifetime.start.p0(i64 120, ptr %8) #9
  call void @llvm.memcpy.p0.p0.i64(ptr align 8 %8, ptr align 8 @__const.stash_staged.cp_diff_tree, i64 120, i1 false)
  call void @llvm.lifetime.start.p0(i64 256, ptr %9) #9
  call void @llvm.memset.p0.i64(ptr align 8 %9, i8 0, i64 256, i1 false)
  %10 = getelementptr inbounds nuw %struct.index_state, ptr %9, i32 0, i32 19
  %11 = load ptr, ptr @the_repository, align 8, !tbaa !13
  store ptr %11, ptr %10, align 8, !tbaa !197
  %12 = load ptr, ptr %4, align 8, !tbaa !109
  %13 = getelementptr inbounds nuw %struct.stash_info, ptr %12, i32 0, i32 4
  %14 = load ptr, ptr @the_repository, align 8, !tbaa !13
  %15 = getelementptr inbounds nuw %struct.repository, ptr %14, i32 0, i32 9
  %16 = load ptr, ptr %15, align 8, !tbaa !198
  %17 = call i32 @write_index_as_tree(ptr noundef %13, ptr noundef %9, ptr noundef %16, i32 noundef 0, ptr noundef null)
  %18 = icmp ne i32 %17, 0
  br i1 %18, label %19, label %20

19:                                               ; preds = %3
  store i32 -1, ptr %7, align 4, !tbaa !4
  br label %47

20:                                               ; preds = %3
  %21 = getelementptr inbounds nuw %struct.child_process, ptr %8, i32 0, i32 11
  %22 = load i16, ptr %21, align 8
  %23 = and i16 %22, -9
  %24 = or i16 %23, 8
  store i16 %24, ptr %21, align 8
  %25 = getelementptr inbounds nuw %struct.child_process, ptr %8, i32 0, i32 0
  %26 = load ptr, ptr %4, align 8, !tbaa !109
  %27 = getelementptr inbounds nuw %struct.stash_info, ptr %26, i32 0, i32 4
  %28 = call ptr @oid_to_hex(ptr noundef %27)
  call void (ptr, ...) @strvec_pushl(ptr noundef %25, ptr noundef @.str.46, ptr noundef @.str.116, ptr noundef @.str.47, ptr noundef @.str.117, ptr noundef @.str.94, ptr noundef %28, ptr noundef @.str.77, ptr noundef null)
  %29 = load ptr, ptr %5, align 8, !tbaa !127
  %30 = call i32 @pipe_command(ptr noundef %8, ptr noundef null, i64 noundef 0, ptr noundef %29, i64 noundef 0, ptr noundef null, i64 noundef 0)
  %31 = icmp ne i32 %30, 0
  br i1 %31, label %32, label %33

32:                                               ; preds = %20
  store i32 -1, ptr %7, align 4, !tbaa !4
  br label %47

33:                                               ; preds = %20
  %34 = load ptr, ptr %5, align 8, !tbaa !127
  %35 = getelementptr inbounds nuw %struct.strbuf, ptr %34, i32 0, i32 1
  %36 = load i64, ptr %35, align 8, !tbaa !114
  %37 = icmp ne i64 %36, 0
  br i1 %37, label %46, label %38

38:                                               ; preds = %33
  %39 = load i32, ptr %6, align 4, !tbaa !4
  %40 = icmp ne i32 %39, 0
  br i1 %40, label %45, label %41

41:                                               ; preds = %38
  %42 = load ptr, ptr @stderr, align 8, !tbaa !52
  %43 = call ptr @_(ptr noundef @.str.119)
  %44 = call i32 (ptr, ptr, ...) @fprintf_ln(ptr noundef %42, ptr noundef %43)
  br label %45

45:                                               ; preds = %41, %38
  store i32 1, ptr %7, align 4, !tbaa !4
  br label %46

46:                                               ; preds = %45, %33
  br label %47

47:                                               ; preds = %46, %32, %19
  call void @release_index(ptr noundef %9)
  %48 = load i32, ptr %7, align 4, !tbaa !4
  call void @llvm.lifetime.end.p0(i64 256, ptr %9) #9
  call void @llvm.lifetime.end.p0(i64 120, ptr %8) #9
  call void @llvm.lifetime.end.p0(i64 4, ptr %7) #9
  ret i32 %48
}