; Function Attrs: nounwind uwtable
define internal fastcc range(i32 -1, 2) i32 @stash_staged(ptr noundef nonnull %0, ptr noundef %1, i32 noundef %2) unnamed_addr #0 {
  %4 = alloca %struct.child_process, align 8
  %5 = alloca %struct.index_state, align 8
  call void @llvm.lifetime.start.p0(i64 120, ptr nonnull %4) #15
  call void @llvm.memcpy.p0.p0.i64(ptr noundef nonnull align 8 dereferenceable(120) %4, ptr noundef nonnull align 8 dereferenceable(120) @__const.do_push_stash.cp.159, i64 120, i1 false)
  call void @llvm.lifetime.start.p0(i64 256, ptr nonnull %5) #15
  call void @llvm.memset.p0.i64(ptr noundef nonnull align 8 dereferenceable(256) %5, i8 0, i64 256, i1 false)
  %6 = getelementptr inbounds nuw i8, ptr %5, i64 240
  %7 = load ptr, ptr @the_repository, align 8, !tbaa !18
  store ptr %7, ptr %6, align 8, !tbaa !186
  %8 = getelementptr inbounds nuw i8, ptr %0, i64 144
  %9 = getelementptr inbounds nuw i8, ptr %7, i64 232
  %10 = load ptr, ptr %9, align 8, !tbaa !187
  %11 = call i32 @write_index_as_tree(ptr noundef nonnull %8, ptr noundef nonnull %5, ptr noundef %10, i32 noundef 0, ptr noundef null) #15
  %.not = icmp eq i32 %11, 0
  br i1 %.not, label %12, label %26

12:                                               ; preds = %3
  %13 = getelementptr inbounds nuw i8, ptr %4, i64 104
  store i16 8, ptr %13, align 8
  %14 = call ptr @oid_to_hex(ptr noundef nonnull %8) #15
  call void (ptr, ...) @strvec_pushl(ptr noundef nonnull %4, ptr noundef nonnull @.str.46, ptr noundef nonnull @.str.116, ptr noundef nonnull @.str.47, ptr noundef nonnull @.str.117, ptr noundef nonnull @.str.94, ptr noundef %14, ptr noundef nonnull @.str.77, ptr noundef null) #15
  %15 = call i32 @pipe_command(ptr noundef nonnull %4, ptr noundef null, i64 noundef 0, ptr noundef %1, i64 noundef 0, ptr noundef null, i64 noundef 0) #15
  %.not5 = icmp eq i32 %15, 0
  br i1 %.not5, label %16, label %26

16:                                               ; preds = %12
  %17 = getelementptr inbounds nuw i8, ptr %1, i64 8
  %18 = load i64, ptr %17, align 8, !tbaa !132
  %.not6 = icmp eq i64 %18, 0
  br i1 %.not6, label %19, label %26

19:                                               ; preds = %16
  %.not7 = icmp eq i32 %2, 0
  br i1 %.not7, label %20, label %26

20:                                               ; preds = %19
  %21 = load ptr, ptr @stderr, align 8, !tbaa !52
  %22 = load i32, ptr @git_gettext_enabled, align 4, !tbaa !42
  %.not4.i = icmp eq i32 %22, 0
  br i1 %.not4.i, label %_.exit, label %23

23:                                               ; preds = %20
  %24 = call ptr @dcgettext(ptr noundef null, ptr noundef nonnull @.str.119, i32 noundef 5) #15
  br label %_.exit

_.exit:                                           ; preds = %20, %23
  %.0.i = phi ptr [ %24, %23 ], [ @.str.119, %20 ]
  %25 = call i32 (ptr, ptr, ...) @fprintf_ln(ptr noundef %21, ptr noundef %.0.i) #15
  br label %26

26:                                               ; preds = %19, %_.exit, %12, %3, %16
  %.0 = phi i32 [ 0, %16 ], [ -1, %3 ], [ -1, %12 ], [ 1, %_.exit ], [ 1, %19 ]
  call void @release_index(ptr noundef nonnull %5) #15
  call void @llvm.lifetime.end.p0(i64 256, ptr nonnull %5) #15
  call void @llvm.lifetime.end.p0(i64 120, ptr nonnull %4) #15
  ret i32 %.0
}